target datalayout = "e-m:e-p270:32:32-p271:32:32-p272:64:64-i64:64-i128:128-f80:128-n8:16:32:64-S128"
target triple = "x86_64-pc-linux-gnu"

; Function Attrs: noinline nounwind uwtable
define internal void @interp_lines(ptr noundef %0, i32 noundef %1, i32 noundef %2, i32 noundef %3) #7 {
  %5 = alloca ptr, align 8
  %6 = alloca i32, align 4
  %7 = alloca i32, align 4
  %8 = alloca i32, align 4
  %9 = alloca ptr, align 8
  %10 = alloca ptr, align 8
  %11 = alloca i32, align 4
  %12 = alloca i32, align 4
  %13 = alloca ptr, align 8
  %14 = alloca ptr, align 8
  %15 = alloca ptr, align 8
  store ptr %0, ptr %5, align 8, !tbaa !43
  store i32 %1, ptr %6, align 4, !tbaa !58
  store i32 %2, ptr %7, align 4, !tbaa !58
  store i32 %3, ptr %8, align 4, !tbaa !58
  call void @llvm.lifetime.start.p0(i64 8, ptr %9) #12
  call void @llvm.lifetime.start.p0(i64 8, ptr %10) #12
  call void @llvm.lifetime.start.p0(i64 4, ptr %11) #12
  call void @llvm.lifetime.start.p0(i64 4, ptr %12) #12
  store i32 0, ptr %12, align 4, !tbaa !58
  br label %16

16:                                               ; preds = %129, %4
  %17 = load i32, ptr %12, align 4, !tbaa !58
  %18 = load i32, ptr %8, align 4, !tbaa !58
  %19 = sub nsw i32 %18, 2
  %20 = icmp slt i32 %17, %19
  br i1 %20, label %22, label %21

21:                                               ; preds = %16
  call void @llvm.lifetime.end.p0(i64 4, ptr %12) #12
  br label %132

22:                                               ; preds = %16
  call void @llvm.lifetime.start.p0(i64 8, ptr %13) #12
  %23 = load ptr, ptr %5, align 8, !tbaa !43
  store ptr %23, ptr %13, align 8, !tbaa !43
  call void @llvm.lifetime.start.p0(i64 8, ptr %14) #12
  %24 = load ptr, ptr %5, align 8, !tbaa !43
  %25 = load i32, ptr %6, align 4, !tbaa !58
  %26 = sext i32 %25 to i64
  %27 = getelementptr inbounds i8, ptr %24, i64 %26
  store ptr %27, ptr %14, align 8, !tbaa !43
  call void @llvm.lifetime.start.p0(i64 8, ptr %15) #12
  %28 = load ptr, ptr %14, align 8, !tbaa !43
  %29 = load i32, ptr %6, align 4, !tbaa !58
  %30 = sext i32 %29 to i64
  %31 = getelementptr inbounds i8, ptr %28, i64 %30
  store ptr %31, ptr %15, align 8, !tbaa !43
  store i32 0, ptr %11, align 4, !tbaa !58
  br label %32

32:                                               ; preds = %95, %22
  %33 = load i32, ptr %11, align 4, !tbaa !58
  %34 = load i32, ptr %7, align 4, !tbaa !58
  %35 = sub nsw i32 %34, 2
  %36 = icmp slt i32 %33, %35
  br i1 %36, label %37, label %98

37:                                               ; preds = %32
  %38 = load ptr, ptr %13, align 8, !tbaa !43
  %39 = load i32, ptr %11, align 4, !tbaa !58
  %40 = sext i32 %39 to i64
  %41 = getelementptr inbounds i8, ptr %38, i64 %40
  %42 = load i8, ptr %41, align 1, !tbaa !47
  %43 = zext i8 %42 to i32
  %44 = load ptr, ptr %15, align 8, !tbaa !43
  %45 = load i32, ptr %11, align 4, !tbaa !58
  %46 = sext i32 %45 to i64
  %47 = getelementptr inbounds i8, ptr %44, i64 %46
  %48 = load i8, ptr %47, align 1, !tbaa !47
  %49 = zext i8 %48 to i32
  %50 = add nsw i32 %43, %49
  %51 = add nsw i32 %50, 1
  %52 = ashr i32 %51, 1
  %53 = trunc i32 %52 to i8
  %54 = load ptr, ptr %14, align 8, !tbaa !43
  %55 = load i32, ptr %11, align 4, !tbaa !58
  %56 = sext i32 %55 to i64
  %57 = getelementptr inbounds i8, ptr %54, i64 %56
  store i8 %53, ptr %57, align 1, !tbaa !47
  %58 = load ptr, ptr %13, align 8, !tbaa !43
  %59 = load i32, ptr %11, align 4, !tbaa !58
  %60 = sext i32 %59 to i64
  %61 = getelementptr inbounds i8, ptr %58, i64 %60
  %62 = load i8, ptr %61, align 1, !tbaa !47
  %63 = zext i8 %62 to i32
  %64 = load ptr, ptr %15, align 8, !tbaa !43
  %65 = load i32, ptr %11, align 4, !tbaa !58
  %66 = sext i32 %65 to i64
  %67 = getelementptr inbounds i8, ptr %64, i64 %66
  %68 = load i8, ptr %67, align 1, !tbaa !47
  %69 = zext i8 %68 to i32
  %70 = add nsw i32 %63, %69
  %71 = load ptr, ptr %13, align 8, !tbaa !43
  %72 = load i32, ptr %11, align 4, !tbaa !58
  %73 = add nsw i32 %72, 2
  %74 = sext i32 %73 to i64
  %75 = getelementptr inbounds i8, ptr %71, i64 %74
  %76 = load i8, ptr %75, align 1, !tbaa !47
  %77 = zext i8 %76 to i32
  %78 = add nsw i32 %70, %77
  %79 = load ptr, ptr %15, align 8, !tbaa !43
  %80 = load i32, ptr %11, align 4, !tbaa !58
  %81 = add nsw i32 %80, 2
  %82 = sext i32 %81 to i64
  %83 = getelementptr inbounds i8, ptr %79, i64 %82
  %84 = load i8, ptr %83, align 1, !tbaa !47
  %85 = zext i8 %84 to i32
  %86 = add nsw i32 %78, %85
  %87 = add nsw i32 %86, 2
  %88 = ashr i32 %87, 2
  %89 = trunc i32 %88 to i8
  %90 = load ptr, ptr %14, align 8, !tbaa !43
  %91 = load i32, ptr %11, align 4, !tbaa !58
  %92 = add nsw i32 %91, 1
  %93 = sext i32 %92 to i64
  %94 = getelementptr inbounds i8, ptr %90, i64 %93
  store i8 %89, ptr %94, align 1, !tbaa !47
  br label %95

95:                                               ; preds = %37
  %96 = load i32, ptr %11, align 4, !tbaa !58
  %97 = add nsw i32 %96, 2
  store i32 %97, ptr %11, align 4, !tbaa !58
  br label %32, !llvm.loop !79

98:                                               ; preds = %32
  %99 = load ptr, ptr %13, align 8, !tbaa !43
  %100 = load i32, ptr %11, align 4, !tbaa !58
  %101 = sext i32 %100 to i64
  %102 = getelementptr inbounds i8, ptr %99, i64 %101
  %103 = load i8, ptr %102, align 1, !tbaa !47
  %104 = zext i8 %103 to i32
  %105 = load ptr, ptr %15, align 8, !tbaa !43
  %106 = load i32, ptr %11, align 4, !tbaa !58
  %107 = sext i32 %106 to i64
  %108 = getelementptr inbounds i8, ptr %105, i64 %107
  %109 = load i8, ptr %108, align 1, !tbaa !47
  %110 = zext i8 %109 to i32
  %111 = add nsw i32 %104, %110
  %112 = add nsw i32 %111, 1
  %113 = ashr i32 %112, 1
  %114 = trunc i32 %113 to i8
  %115 = load ptr, ptr %14, align 8, !tbaa !43
  %116 = load i32, ptr %11, align 4, !tbaa !58
  %117 = add nsw i32 %116, 1
  %118 = sext i32 %117 to i64
  %119 = getelementptr inbounds i8, ptr %115, i64 %118
  store i8 %114, ptr %119, align 1, !tbaa !47
  %120 = load ptr, ptr %14, align 8, !tbaa !43
  %121 = load i32, ptr %11, align 4, !tbaa !58
  %122 = sext i32 %121 to i64
  %123 = getelementptr inbounds i8, ptr %120, i64 %122
  store i8 %114, ptr %123, align 1, !tbaa !47
  %124 = load i32, ptr %6, align 4, !tbaa !58
  %125 = shl i32 %124, 1
  %126 = load ptr, ptr %5, align 8, !tbaa !43
  %127 = sext i32 %125 to i64
  %128 = getelementptr inbounds i8, ptr %126, i64 %127
  store ptr %128, ptr %5, align 8, !tbaa !43
  call void @llvm.lifetime.end.p0(i64 8, ptr %15) #12
  call void @llvm.lifetime.end.p0(i64 8, ptr %14) #12
  call void @llvm.lifetime.end.p0(i64 8, ptr %13) #12
  br label %129

129:                                              ; preds = %98
  %130 = load i32, ptr %12, align 4, !tbaa !58
  %131 = add nsw i32 %130, 2
  store i32 %131, ptr %12, align 4, !tbaa !58
  br label %16, !llvm.loop !80

132:                                              ; preds = %21
  %133 = load ptr, ptr %5, align 8, !tbaa !43
  store ptr %133, ptr %9, align 8, !tbaa !43
  %134 = load ptr, ptr %5, align 8, !tbaa !43
  %135 = load i32, ptr %6, align 4, !tbaa !58
  %136 = sext i32 %135 to i64
  %137 = getelementptr inbounds i8, ptr %134, i64 %136
  store ptr %137, ptr %10, align 8, !tbaa !43
  store i32 0, ptr %11, align 4, !tbaa !58
  br label %138

138:                                              ; preds = %175, %132
  %139 = load i32, ptr %11, align 4, !tbaa !58
  %140 = load i32, ptr %7, align 4, !tbaa !58
  %141 = sub nsw i32 %140, 2
  %142 = icmp slt i32 %139, %141
  br i1 %142, label %143, label %178

143:                                              ; preds = %138
  %144 = load ptr, ptr %9, align 8, !tbaa !43
  %145 = load i32, ptr %11, align 4, !tbaa !58
  %146 = sext i32 %145 to i64
  %147 = getelementptr inbounds i8, ptr %144, i64 %146
  %148 = load i8, ptr %147, align 1, !tbaa !47
  %149 = load ptr, ptr %10, align 8, !tbaa !43
  %150 = load i32, ptr %11, align 4, !tbaa !58
  %151 = sext i32 %150 to i64
  %152 = getelementptr inbounds i8, ptr %149, i64 %151
  store i8 %148, ptr %152, align 1, !tbaa !47
  %153 = load ptr, ptr %9, align 8, !tbaa !43
  %154 = load i32, ptr %11, align 4, !tbaa !58
  %155 = sext i32 %154 to i64
  %156 = getelementptr inbounds i8, ptr %153, i64 %155
  %157 = load i8, ptr %156, align 1, !tbaa !47
  %158 = zext i8 %157 to i32
  %159 = load ptr, ptr %9, align 8, !tbaa !43
  %160 = load i32, ptr %11, align 4, !tbaa !58
  %161 = add nsw i32 %160, 2
  %162 = sext i32 %161 to i64
  %163 = getelementptr inbounds i8, ptr %159, i64 %162
  %164 = load i8, ptr %163, align 1, !tbaa !47
  %165 = zext i8 %164 to i32
  %166 = add nsw i32 %158, %165
  %167 = add nsw i32 %166, 1
  %168 = ashr i32 %167, 1
  %169 = trunc i32 %168 to i8
  %170 = load ptr, ptr %10, align 8, !tbaa !43
  %171 = load i32, ptr %11, align 4, !tbaa !58
  %172 = add nsw i32 %171, 1
  %173 = sext i32 %172 to i64
  %174 = getelementptr inbounds i8, ptr %170, i64 %173
  store i8 %169, ptr %174, align 1, !tbaa !47
  br label %175

175:                                              ; preds = %143
  %176 = load i32, ptr %11, align 4, !tbaa !58
  %177 = add nsw i32 %176, 2
  store i32 %177, ptr %11, align 4, !tbaa !58
  br label %138, !llvm.loop !81

178:                                              ; preds = %138
  %179 = load ptr, ptr %9, align 8, !tbaa !43
  %180 = load i32, ptr %11, align 4, !tbaa !58
  %181 = sext i32 %180 to i64
  %182 = getelementptr inbounds i8, ptr %179, i64 %181
  %183 = load i8, ptr %182, align 1, !tbaa !47
  %184 = load ptr, ptr %10, align 8, !tbaa !43
  %185 = load i32, ptr %11, align 4, !tbaa !58
  %186 = add nsw i32 %185, 1
  %187 = sext i32 %186 to i64
  %188 = getelementptr inbounds i8, ptr %184, i64 %187
  store i8 %183, ptr %188, align 1, !tbaa !47
  %189 = load ptr, ptr %10, align 8, !tbaa !43
  %190 = load i32, ptr %11, align 4, !tbaa !58
  %191 = sext i32 %190 to i64
  %192 = getelementptr inbounds i8, ptr %189, i64 %191
  store i8 %183, ptr %192, align 1, !tbaa !47
  call void @llvm.lifetime.end.p0(i64 4, ptr %11) #12
  call void @llvm.lifetime.end.p0(i64 8, ptr %10) #12
  call void @llvm.lifetime.end.p0(i64 8, ptr %9) #12
  ret void
}