; Function Attrs: nofree noinline norecurse nosync nounwind memory(argmem: readwrite) uwtable
define internal fastcc void @interp_lines(ptr noundef captures(none) %0, i32 noundef %1, i32 noundef range(i32 768, 3073) %2, i32 noundef range(i32 512, 2049) %3) unnamed_addr #5 {
.lr.ph.us.preheader:
  %4 = add nsw i32 %3, -2
  %5 = sext i32 %1 to i64
  %6 = add nsw i32 %2, -2
  %7 = shl i32 %1, 1
  %8 = sext i32 %7 to i64
  %9 = zext nneg i32 %6 to i64
  br label %.lr.ph.us

.lr.ph.us:                                        ; preds = %.lr.ph.us.preheader, %._crit_edge.us
  %.062.us = phi ptr [ %55, %._crit_edge.us ], [ %0, %.lr.ph.us.preheader ]
  %.05961.us = phi i32 [ %56, %._crit_edge.us ], [ 0, %.lr.ph.us.preheader ]
  %10 = getelementptr inbounds i8, ptr %.062.us, i64 %5
  %11 = getelementptr inbounds i8, ptr %10, i64 %5
  br label %12

12:                                               ; preds = %.lr.ph.us, %12
  %indvars.iv = phi i64 [ 0, %.lr.ph.us ], [ %indvars.iv.next, %12 ]
  %13 = getelementptr inbounds nuw i8, ptr %.062.us, i64 %indvars.iv
  %14 = load i8, ptr %13, align 1, !tbaa !35
  %15 = zext i8 %14 to i16
  %16 = getelementptr inbounds nuw i8, ptr %11, i64 %indvars.iv
  %17 = load i8, ptr %16, align 1, !tbaa !35
  %18 = zext i8 %17 to i16
  %19 = add nuw nsw i16 %15, 1
  %20 = add nuw nsw i16 %19, %18
  %21 = lshr i16 %20, 1
  %22 = trunc nuw i16 %21 to i8
  %23 = getelementptr inbounds nuw i8, ptr %10, i64 %indvars.iv
  store i8 %22, ptr %23, align 1, !tbaa !35
  %24 = load i8, ptr %13, align 1, !tbaa !35
  %25 = zext i8 %24 to i16
  %26 = load i8, ptr %16, align 1, !tbaa !35
  %27 = zext i8 %26 to i16
  %indvars.iv.next = add nuw nsw i64 %indvars.iv, 2
  %28 = getelementptr inbounds nuw i8, ptr %.062.us, i64 %indvars.iv.next
  %29 = load i8, ptr %28, align 1, !tbaa !35
  %30 = zext i8 %29 to i16
  %31 = getelementptr inbounds nuw i8, ptr %11, i64 %indvars.iv.next
  %32 = load i8, ptr %31, align 1, !tbaa !35
  %33 = zext i8 %32 to i16
  %34 = add nuw nsw i16 %25, 2
  %35 = add nuw nsw i16 %34, %27
  %36 = add nuw nsw i16 %35, %30
  %37 = add nuw nsw i16 %36, %33
  %38 = lshr i16 %37, 2
  %39 = trunc nuw i16 %38 to i8
  %40 = getelementptr inbounds nuw i8, ptr %23, i64 1
  store i8 %39, ptr %40, align 1, !tbaa !35
  %41 = icmp samesign ult i64 %indvars.iv.next, %9
  br i1 %41, label %12, label %._crit_edge.us, !llvm.loop !68

._crit_edge.us:                                   ; preds = %12
  %42 = and i64 %indvars.iv.next, 4294967294
  %43 = getelementptr inbounds nuw i8, ptr %.062.us, i64 %42
  %44 = load i8, ptr %43, align 1, !tbaa !35
  %45 = zext i8 %44 to i16
  %46 = getelementptr inbounds nuw i8, ptr %11, i64 %42
  %47 = load i8, ptr %46, align 1, !tbaa !35
  %48 = zext i8 %47 to i16
  %49 = add nuw nsw i16 %45, 1
  %50 = add nuw nsw i16 %49, %48
  %51 = lshr i16 %50, 1
  %52 = trunc nuw i16 %51 to i8
  %53 = getelementptr inbounds nuw i8, ptr %10, i64 %42
  %54 = getelementptr inbounds nuw i8, ptr %53, i64 1
  store i8 %52, ptr %54, align 1, !tbaa !35
  store i8 %52, ptr %53, align 1, !tbaa !35
  %55 = getelementptr inbounds i8, ptr %.062.us, i64 %8
  %56 = add nuw nsw i32 %.05961.us, 2
  %57 = icmp samesign ult i32 %56, %4
  br i1 %57, label %.lr.ph.us, label %.lr.ph.preheader, !llvm.loop !69

.lr.ph.preheader:                                 ; preds = %._crit_edge.us
  %58 = getelementptr inbounds i8, ptr %55, i64 %5
  %59 = zext nneg i32 %6 to i64
  br label %.lr.ph

.lr.ph:                                           ; preds = %.lr.ph.preheader, %.lr.ph
  %indvars.iv72 = phi i64 [ 0, %.lr.ph.preheader ], [ %indvars.iv.next73, %.lr.ph ]
  %60 = getelementptr inbounds nuw i8, ptr %55, i64 %indvars.iv72
  %61 = load i8, ptr %60, align 1, !tbaa !35
  %62 = getelementptr inbounds nuw i8, ptr %58, i64 %indvars.iv72
  store i8 %61, ptr %62, align 1, !tbaa !35
  %63 = zext i8 %61 to i16
  %indvars.iv.next73 = add nuw nsw i64 %indvars.iv72, 2
  %64 = getelementptr inbounds nuw i8, ptr %55, i64 %indvars.iv.next73
  %65 = load i8, ptr %64, align 1, !tbaa !35
  %66 = zext i8 %65 to i16
  %67 = add nuw nsw i16 %63, 1
  %68 = add nuw nsw i16 %67, %66
  %69 = lshr i16 %68, 1
  %70 = trunc nuw i16 %69 to i8
  %71 = getelementptr inbounds nuw i8, ptr %62, i64 1
  store i8 %70, ptr %71, align 1, !tbaa !35
  %72 = icmp samesign ult i64 %indvars.iv.next73, %59
  br i1 %72, label %.lr.ph, label %._crit_edge, !llvm.loop !70

._crit_edge:                                      ; preds = %.lr.ph
  %73 = and i64 %indvars.iv.next73, 4294967294
  %74 = getelementptr inbounds nuw i8, ptr %55, i64 %73
  %75 = load i8, ptr %74, align 1, !tbaa !35
  %76 = getelementptr inbounds nuw i8, ptr %58, i64 %73
  %77 = getelementptr inbounds nuw i8, ptr %76, i64 1
  store i8 %75, ptr %77, align 1, !tbaa !35
  store i8 %75, ptr %76, align 1, !tbaa !35
  ret void
}